; Function Attrs: nounwind uwtable
define internal fastcc noundef ptr @inject_projection_plan(ptr noundef %0, ptr noundef %1, i1 noundef zeroext %2) unnamed_addr #0 {
  %4 = zext i1 %2 to i8
  %5 = tail call noundef ptr @palloc0(i64 noundef 112) #12
  store i32 330, ptr %5, align 4
  %6 = getelementptr inbounds nuw i8, ptr %5, i64 48
  store ptr %1, ptr %6, align 8
  %7 = getelementptr inbounds nuw i8, ptr %5, i64 56
  store ptr null, ptr %7, align 8
  %8 = getelementptr inbounds nuw i8, ptr %5, i64 64
  store ptr %0, ptr %8, align 8
  %9 = getelementptr inbounds nuw i8, ptr %5, i64 72
  store ptr null, ptr %9, align 8
  %10 = getelementptr inbounds nuw i8, ptr %5, i64 104
  store ptr null, ptr %10, align 8
  %11 = getelementptr inbounds nuw i8, ptr %0, i64 4
  %12 = load i32, ptr %11, align 4
  %13 = getelementptr inbounds nuw i8, ptr %5, i64 4
  store i32 %12, ptr %13, align 4
  %14 = getelementptr inbounds nuw i8, ptr %0, i64 8
  %15 = load double, ptr %14, align 8
  %16 = getelementptr inbounds nuw i8, ptr %5, i64 8
  store double %15, ptr %16, align 8
  %17 = getelementptr inbounds nuw i8, ptr %0, i64 16
  %18 = load double, ptr %17, align 8
  %19 = getelementptr inbounds nuw i8, ptr %5, i64 16
  store double %18, ptr %19, align 8
  %20 = getelementptr inbounds nuw i8, ptr %0, i64 24
  %21 = load double, ptr %20, align 8
  %22 = getelementptr inbounds nuw i8, ptr %5, i64 24
  store double %21, ptr %22, align 8
  %23 = getelementptr inbounds nuw i8, ptr %0, i64 32
  %24 = load i32, ptr %23, align 8
  %25 = getelementptr inbounds nuw i8, ptr %5, i64 32
  store i32 %24, ptr %25, align 8
  %26 = getelementptr inbounds nuw i8, ptr %5, i64 36
  store i8 0, ptr %26, align 4
  %27 = getelementptr inbounds nuw i8, ptr %5, i64 37
  store i8 %4, ptr %27, align 1
  ret ptr %5
}